target datalayout = "e-m:e-p270:32:32-p271:32:32-p272:64:64-i64:64-i128:128-f80:128-n8:16:32:64-S128"
target triple = "x86_64-pc-linux-gnu"

@.str.299 = private unnamed_addr constant [7 x i8] c"%.5f%c\00", align 1

; Function Attrs: null_pointer_is_valid sspstrong uwtable
define internal void @cf_coords_lat_custom(ptr noundef %0, i32 noundef %1) #0 {
  %3 = alloca ptr, align 8
  %4 = alloca i32, align 4
  %5 = alloca i32, align 4
  %6 = alloca double, align 8
  store ptr %0, ptr %3, align 8
  store i32 %1, ptr %4, align 4
  call void @llvm.lifetime.start.p0(i64 4, ptr %5) #10
  %7 = load i32, ptr %4, align 4
  %8 = icmp ult i32 %7, 8388608
  br i1 %8, label %9, label %11

9:                                                ; preds = %2
  %10 = load i32, ptr %4, align 4
  br label %14

11:                                               ; preds = %2
  %12 = load i32, ptr %4, align 4
  %13 = sub i32 %12, 16777216
  br label %14

14:                                               ; preds = %11, %9
  %15 = phi i32 [ %10, %9 ], [ %13, %11 ]
  store i32 %15, ptr %5, align 4
  call void @llvm.lifetime.start.p0(i64 8, ptr %6) #10
  %16 = load i32, ptr %5, align 4
  %17 = sitofp i32 %16 to double
  %18 = fmul double %17, 9.000000e+01
  %19 = fdiv double %18, 0x4160000000000000
  store double %19, ptr %6, align 8
  %20 = load ptr, ptr %3, align 8
  %21 = load ptr, ptr %3, align 8
  %22 = call i64 @llvm.objectsize.i64.p0(ptr %21, i1 false, i1 true, i1 true)
  %23 = load double, ptr %6, align 8
  %24 = call double @llvm.fabs.f64(double %23)
  %25 = load double, ptr %6, align 8
  %26 = fcmp oge double %25, 0.000000e+00
  %27 = select i1 %26, i32 78, i32 83
  %28 = call i32 (ptr, i64, i32, i64, ptr, ...) @__snprintf_chk(ptr noundef %20, i64 noundef 240, i32 noundef 2, i64 noundef %22, ptr noundef @.str.299, double noundef %24, i32 noundef %27)
  call void @llvm.lifetime.end.p0(i64 8, ptr %6) #10
  call void @llvm.lifetime.end.p0(i64 4, ptr %5) #10
  ret void
}