; Function Attrs: nofree null_pointer_is_valid sspstrong uwtable
define internal void @cf_coords_lat_custom(ptr noundef %0, i32 noundef %1) #1 {
  %3 = icmp ult i32 %1, 8388608
  %4 = add i32 %1, -16777216
  %5 = select i1 %3, i32 %1, i32 %4
  %6 = sitofp i32 %5 to double
  %7 = fmul double %6, 9.000000e+01
  %8 = fmul double %7, 0x3E80000000000000
  %9 = tail call double @llvm.fabs.f64(double %8)
  %10 = fcmp oge double %8, 0.000000e+00
  %11 = select i1 %10, i32 78, i32 83
  %12 = tail call i32 (ptr, i64, i32, i64, ptr, ...) @__snprintf_chk(ptr noundef %0, i64 noundef 240, i32 noundef 2, i64 noundef -1, ptr noundef nonnull @.str.299, double noundef %9, i32 noundef %11)
  ret void
}